; Function Attrs: mustprogress uwtable
define dso_local void @_ZNK12btEmptyShape7getAabbERK11btTransformR9btVector3S4_(ptr noundef nonnull align 8 dereferenceable(52) %0, ptr noundef nonnull readonly align 4 captures(none) dereferenceable(64) %1, ptr noundef nonnull writeonly align 4 captures(none) dereferenceable(16) initializes((0, 16)) %2, ptr noundef nonnull writeonly align 4 captures(none) dereferenceable(16) initializes((0, 16)) %3) unnamed_addr #4 align 2 {
  %5 = load ptr, ptr %0, align 8, !tbaa !4
  %6 = getelementptr inbounds nuw i8, ptr %5, i64 96
  %7 = load ptr, ptr %6, align 8
  %8 = tail call noundef float %7(ptr noundef nonnull align 8 dereferenceable(36) %0)
  %9 = load ptr, ptr %0, align 8, !tbaa !4
  %10 = getelementptr inbounds nuw i8, ptr %9, i64 96
  %11 = load ptr, ptr %10, align 8
  %12 = tail call noundef float %11(ptr noundef nonnull align 8 dereferenceable(36) %0)
  %13 = load ptr, ptr %0, align 8, !tbaa !4
  %14 = getelementptr inbounds nuw i8, ptr %13, i64 96
  %15 = load ptr, ptr %14, align 8
  %16 = tail call noundef float %15(ptr noundef nonnull align 8 dereferenceable(36) %0)
  %17 = getelementptr inbounds nuw i8, ptr %1, i64 48
  %18 = load float, ptr %17, align 4, !tbaa !12
  %19 = fsub float %18, %8
  %20 = getelementptr inbounds nuw i8, ptr %1, i64 52
  %21 = load float, ptr %20, align 4, !tbaa !12
  %22 = fsub float %21, %12
  %23 = getelementptr inbounds nuw i8, ptr %1, i64 56
  %24 = load float, ptr %23, align 4, !tbaa !12
  %25 = fsub float %24, %16
  %.sroa.0.0.vec.insert.i = insertelement <2 x float> poison, float %19, i64 0
  %.sroa.0.4.vec.insert.i = insertelement <2 x float> %.sroa.0.0.vec.insert.i, float %22, i64 1
  %.sroa.3.12.vec.insert.i = insertelement <2 x float> <float poison, float 0.000000e+00>, float %25, i64 0
  store <2 x float> %.sroa.0.4.vec.insert.i, ptr %2, align 4
  %.sroa.42.0..sroa_idx = getelementptr inbounds nuw i8, ptr %2, i64 8
  store <2 x float> %.sroa.3.12.vec.insert.i, ptr %.sroa.42.0..sroa_idx, align 4, !tbaa !14
  %26 = load float, ptr %17, align 4, !tbaa !12
  %27 = fadd float %8, %26
  %28 = load float, ptr %20, align 4, !tbaa !12
  %29 = fadd float %12, %28
  %30 = load float, ptr %23, align 4, !tbaa !12
  %31 = fadd float %16, %30
  %.sroa.0.0.vec.insert.i7 = insertelement <2 x float> poison, float %27, i64 0
  %.sroa.0.4.vec.insert.i8 = insertelement <2 x float> %.sroa.0.0.vec.insert.i7, float %29, i64 1
  %.sroa.3.12.vec.insert.i9 = insertelement <2 x float> <float poison, float 0.000000e+00>, float %31, i64 0
  store <2 x float> %.sroa.0.4.vec.insert.i8, ptr %3, align 4
  %.sroa.4.0..sroa_idx = getelementptr inbounds nuw i8, ptr %3, i64 8
  store <2 x float> %.sroa.3.12.vec.insert.i9, ptr %.sroa.4.0..sroa_idx, align 4, !tbaa !14
  ret void
}